; ModuleID = '39/804.c'
source_filename = "39/804.c"
target datalayout = "e-m:e-p270:32:32-p271:32:32-p272:64:64-i64:64-f80:128-n8:16:32:64-S128"
target triple = "x86_64-pc-linux-gnu"

%struct.student = type { [20 x i8], i32, i32, i8, i8, i32, i32 }

@.str = private unnamed_addr constant [3 x i8] c"%d\00", align 1
@.str.1 = private unnamed_addr constant [18 x i8] c"%s %d %d %c %c %d\00", align 1
@.str.2 = private unnamed_addr constant [9 x i8] c"%s\0A%d\0A%d\00", align 1

; Function Attrs: noinline nounwind uwtable
define dso_local i32 @main() #0 {
  %1 = alloca i32, align 4
  %2 = alloca [100 x %struct.student], align 16
  %3 = alloca %struct.student, align 4
  %4 = alloca i32, align 4
  %5 = alloca i32, align 4
  %6 = alloca i32, align 4
  %7 = alloca i32, align 4
  %8 = alloca i32, align 4
  %9 = alloca i32, align 4
  %10 = alloca i32, align 4
  %11 = alloca i32, align 4
  store i32 0, i32* %1, align 4
  %12 = call i32 (i8*, ...) @__isoc99_scanf(i8* getelementptr inbounds ([3 x i8], [3 x i8]* @.str, i64 0, i64 0), i32* %4)
  store i32 0, i32* %5, align 4
  br label %13

13:                                               ; preds = %44, %0
  %14 = load i32, i32* %5, align 4
  %15 = load i32, i32* %4, align 4
  %16 = icmp slt i32 %14, %15
  br i1 %16, label %17, label %47

17:                                               ; preds = %13
  %18 = load i32, i32* %5, align 4
  %19 = sext i32 %18 to i64
  %20 = getelementptr inbounds [100 x %struct.student], [100 x %struct.student]* %2, i64 0, i64 %19
  %21 = getelementptr inbounds %struct.student, %struct.student* %20, i32 0, i32 0
  %22 = getelementptr inbounds [20 x i8], [20 x i8]* %21, i64 0, i64 0
  %23 = load i32, i32* %5, align 4
  %24 = sext i32 %23 to i64
  %25 = getelementptr inbounds [100 x %struct.student], [100 x %struct.student]* %2, i64 0, i64 %24
  %26 = getelementptr inbounds %struct.student, %struct.student* %25, i32 0, i32 1
  %27 = load i32, i32* %5, align 4
  %28 = sext i32 %27 to i64
  %29 = getelementptr inbounds [100 x %struct.student], [100 x %struct.student]* %2, i64 0, i64 %28
  %30 = getelementptr inbounds %struct.student, %struct.student* %29, i32 0, i32 2
  %31 = load i32, i32* %5, align 4
  %32 = sext i32 %31 to i64
  %33 = getelementptr inbounds [100 x %struct.student], [100 x %struct.student]* %2, i64 0, i64 %32
  %34 = getelementptr inbounds %struct.student, %struct.student* %33, i32 0, i32 3
  %35 = load i32, i32* %5, align 4
  %36 = sext i32 %35 to i64
  %37 = getelementptr inbounds [100 x %struct.student], [100 x %struct.student]* %2, i64 0, i64 %36
  %38 = getelementptr inbounds %struct.student, %struct.student* %37, i32 0, i32 4
  %39 = load i32, i32* %5, align 4
  %40 = sext i32 %39 to i64
  %41 = getelementptr inbounds [100 x %struct.student], [100 x %struct.student]* %2, i64 0, i64 %40
  %42 = getelementptr inbounds %struct.student, %struct.student* %41, i32 0, i32 5
  %43 = call i32 (i8*, ...) @__isoc99_scanf(i8* getelementptr inbounds ([18 x i8], [18 x i8]* @.str.1, i64 0, i64 0), i8* %22, i32* %26, i32* %30, i8* %34, i8* %38, i32* %42)
  br label %44

44:                                               ; preds = %17
  %45 = load i32, i32* %5, align 4
  %46 = add nsw i32 %45, 1
  store i32 %46, i32* %5, align 4
  br label %13

47:                                               ; preds = %13
  store i32 0, i32* %11, align 4
  store i32 0, i32* %5, align 4
  br label %48

48:                                               ; preds = %143, %47
  %49 = load i32, i32* %5, align 4
  %50 = load i32, i32* %4, align 4
  %51 = icmp slt i32 %49, %50
  br i1 %51, label %52, label %146

52:                                               ; preds = %48
  store i32 0, i32* %6, align 4
  store i32 0, i32* %7, align 4
  store i32 0, i32* %8, align 4
  store i32 0, i32* %9, align 4
  store i32 0, i32* %10, align 4
  %53 = load i32, i32* %5, align 4
  %54 = sext i32 %53 to i64
  %55 = getelementptr inbounds [100 x %struct.student], [100 x %struct.student]* %2, i64 0, i64 %54
  %56 = getelementptr inbounds %struct.student, %struct.student* %55, i32 0, i32 1
  %57 = load i32, i32* %56, align 4
  %58 = icmp sgt i32 %57, 80
  br i1 %58, label %59, label %67

59:                                               ; preds = %52
  %60 = load i32, i32* %5, align 4
  %61 = sext i32 %60 to i64
  %62 = getelementptr inbounds [100 x %struct.student], [100 x %struct.student]* %2, i64 0, i64 %61
  %63 = getelementptr inbounds %struct.student, %struct.student* %62, i32 0, i32 5
  %64 = load i32, i32* %63, align 8
  %65 = icmp sge i32 %64, 1
  br i1 %65, label %66, label %67

66:                                               ; preds = %59
  store i32 8000, i32* %6, align 4
  br label %67

67:                                               ; preds = %66, %59, %52
  %68 = load i32, i32* %5, align 4
  %69 = sext i32 %68 to i64
  %70 = getelementptr inbounds [100 x %struct.student], [100 x %struct.student]* %2, i64 0, i64 %69
  %71 = getelementptr inbounds %struct.student, %struct.student* %70, i32 0, i32 1
  %72 = load i32, i32* %71, align 4
  %73 = icmp sgt i32 %72, 85
  br i1 %73, label %74, label %82

74:                                               ; preds = %67
  %75 = load i32, i32* %5, align 4
  %76 = sext i32 %75 to i64
  %77 = getelementptr inbounds [100 x %struct.student], [100 x %struct.student]* %2, i64 0, i64 %76
  %78 = getelementptr inbounds %struct.student, %struct.student* %77, i32 0, i32 2
  %79 = load i32, i32* %78, align 8
  %80 = icmp sgt i32 %79, 80
  br i1 %80, label %81, label %82

81:                                               ; preds = %74
  store i32 4000, i32* %7, align 4
  br label %82

82:                                               ; preds = %81, %74, %67
  %83 = load i32, i32* %5, align 4
  %84 = sext i32 %83 to i64
  %85 = getelementptr inbounds [100 x %struct.student], [100 x %struct.student]* %2, i64 0, i64 %84
  %86 = getelementptr inbounds %struct.student, %struct.student* %85, i32 0, i32 1
  %87 = load i32, i32* %86, align 4
  %88 = icmp sgt i32 %87, 90
  br i1 %88, label %89, label %90

89:                                               ; preds = %82
  store i32 2000, i32* %8, align 4
  br label %90

90:                                               ; preds = %89, %82
  %91 = load i32, i32* %5, align 4
  %92 = sext i32 %91 to i64
  %93 = getelementptr inbounds [100 x %struct.student], [100 x %struct.student]* %2, i64 0, i64 %92
  %94 = getelementptr inbounds %struct.student, %struct.student* %93, i32 0, i32 1
  %95 = load i32, i32* %94, align 4
  %96 = icmp sgt i32 %95, 85
  br i1 %96, label %97, label %106

97:                                               ; preds = %90
  %98 = load i32, i32* %5, align 4
  %99 = sext i32 %98 to i64
  %100 = getelementptr inbounds [100 x %struct.student], [100 x %struct.student]* %2, i64 0, i64 %99
  %101 = getelementptr inbounds %struct.student, %struct.student* %100, i32 0, i32 4
  %102 = load i8, i8* %101, align 1
  %103 = sext i8 %102 to i32
  %104 = icmp eq i32 %103, 89
  br i1 %104, label %105, label %106

105:                                              ; preds = %97
  store i32 1000, i32* %9, align 4
  br label %106

106:                                              ; preds = %105, %97, %90
  %107 = load i32, i32* %5, align 4
  %108 = sext i32 %107 to i64
  %109 = getelementptr inbounds [100 x %struct.student], [100 x %struct.student]* %2, i64 0, i64 %108
  %110 = getelementptr inbounds %struct.student, %struct.student* %109, i32 0, i32 2
  %111 = load i32, i32* %110, align 8
  %112 = icmp sgt i32 %111, 80
  br i1 %112, label %113, label %122

113:                                              ; preds = %106
  %114 = load i32, i32* %5, align 4
  %115 = sext i32 %114 to i64
  %116 = getelementptr inbounds [100 x %struct.student], [100 x %struct.student]* %2, i64 0, i64 %115
  %117 = getelementptr inbounds %struct.student, %struct.student* %116, i32 0, i32 3
  %118 = load i8, i8* %117, align 4
  %119 = sext i8 %118 to i32
  %120 = icmp eq i32 %119, 89
  br i1 %120, label %121, label %122

121:                                              ; preds = %113
  store i32 850, i32* %10, align 4
  br label %122

122:                                              ; preds = %121, %113, %106
  %123 = load i32, i32* %6, align 4
  %124 = load i32, i32* %7, align 4
  %125 = add nsw i32 %123, %124
  %126 = load i32, i32* %8, align 4
  %127 = add nsw i32 %125, %126
  %128 = load i32, i32* %9, align 4
  %129 = add nsw i32 %127, %128
  %130 = load i32, i32* %10, align 4
  %131 = add nsw i32 %129, %130
  %132 = load i32, i32* %5, align 4
  %133 = sext i32 %132 to i64
  %134 = getelementptr inbounds [100 x %struct.student], [100 x %struct.student]* %2, i64 0, i64 %133
  %135 = getelementptr inbounds %struct.student, %struct.student* %134, i32 0, i32 6
  store i32 %131, i32* %135, align 4
  %136 = load i32, i32* %11, align 4
  %137 = load i32, i32* %5, align 4
  %138 = sext i32 %137 to i64
  %139 = getelementptr inbounds [100 x %struct.student], [100 x %struct.student]* %2, i64 0, i64 %138
  %140 = getelementptr inbounds %struct.student, %struct.student* %139, i32 0, i32 6
  %141 = load i32, i32* %140, align 4
  %142 = add nsw i32 %136, %141
  store i32 %142, i32* %11, align 4
  br label %143

143:                                              ; preds = %122
  %144 = load i32, i32* %5, align 4
  %145 = add nsw i32 %144, 1
  store i32 %145, i32* %5, align 4
  br label %48

146:                                              ; preds = %48
  %147 = load i32, i32* %4, align 4
  %148 = sub nsw i32 %147, 1
  store i32 %148, i32* %5, align 4
  br label %149

149:                                              ; preds = %187, %146
  %150 = load i32, i32* %5, align 4
  %151 = icmp sge i32 %150, 0
  br i1 %151, label %152, label %190

152:                                              ; preds = %149
  %153 = load i32, i32* %5, align 4
  %154 = sub nsw i32 %153, 1
  %155 = sext i32 %154 to i64
  %156 = getelementptr inbounds [100 x %struct.student], [100 x %struct.student]* %2, i64 0, i64 %155
  %157 = getelementptr inbounds %struct.student, %struct.student* %156, i32 0, i32 6
  %158 = load i32, i32* %157, align 4
  %159 = load i32, i32* %5, align 4
  %160 = sext i32 %159 to i64
  %161 = getelementptr inbounds [100 x %struct.student], [100 x %struct.student]* %2, i64 0, i64 %160
  %162 = getelementptr inbounds %struct.student, %struct.student* %161, i32 0, i32 6
  %163 = load i32, i32* %162, align 4
  %164 = icmp slt i32 %158, %163
  br i1 %164, label %165, label %186

165:                                              ; preds = %152
  %166 = load i32, i32* %5, align 4
  %167 = sub nsw i32 %166, 1
  %168 = sext i32 %167 to i64
  %169 = getelementptr inbounds [100 x %struct.student], [100 x %struct.student]* %2, i64 0, i64 %168
  %170 = bitcast %struct.student* %3 to i8*
  %171 = bitcast %struct.student* %169 to i8*
  call void @llvm.memcpy.p0i8.p0i8.i64(i8* align 4 %170, i8* align 8 %171, i64 40, i1 false)
  %172 = load i32, i32* %5, align 4
  %173 = sub nsw i32 %172, 1
  %174 = sext i32 %173 to i64
  %175 = getelementptr inbounds [100 x %struct.student], [100 x %struct.student]* %2, i64 0, i64 %174
  %176 = load i32, i32* %5, align 4
  %177 = sext i32 %176 to i64
  %178 = getelementptr inbounds [100 x %struct.student], [100 x %struct.student]* %2, i64 0, i64 %177
  %179 = bitcast %struct.student* %175 to i8*
  %180 = bitcast %struct.student* %178 to i8*
  call void @llvm.memcpy.p0i8.p0i8.i64(i8* align 8 %179, i8* align 8 %180, i64 40, i1 false)
  %181 = load i32, i32* %5, align 4
  %182 = sext i32 %181 to i64
  %183 = getelementptr inbounds [100 x %struct.student], [100 x %struct.student]* %2, i64 0, i64 %182
  %184 = bitcast %struct.student* %183 to i8*
  %185 = bitcast %struct.student* %3 to i8*
  call void @llvm.memcpy.p0i8.p0i8.i64(i8* align 8 %184, i8* align 4 %185, i64 40, i1 false)
  br label %186

186:                                              ; preds = %165, %152
  br label %187

187:                                              ; preds = %186
  %188 = load i32, i32* %5, align 4
  %189 = add nsw i32 %188, -1
  store i32 %189, i32* %5, align 4
  br label %149

190:                                              ; preds = %149
  %191 = getelementptr inbounds [100 x %struct.student], [100 x %struct.student]* %2, i64 0, i64 0
  %192 = getelementptr inbounds %struct.student, %struct.student* %191, i32 0, i32 0
  %193 = getelementptr inbounds [20 x i8], [20 x i8]* %192, i64 0, i64 0
  %194 = getelementptr inbounds [100 x %struct.student], [100 x %struct.student]* %2, i64 0, i64 0
  %195 = getelementptr inbounds %struct.student, %struct.student* %194, i32 0, i32 6
  %196 = load i32, i32* %195, align 4
  %197 = load i32, i32* %11, align 4
  %198 = call i32 (i8*, ...) @printf(i8* getelementptr inbounds ([9 x i8], [9 x i8]* @.str.2, i64 0, i64 0), i8* %193, i32 %196, i32 %197)
  ret i32 0
}

declare dso_local i32 @__isoc99_scanf(i8*, ...) #1

; Function Attrs: argmemonly nounwind willreturn
declare void @llvm.memcpy.p0i8.p0i8.i64(i8* noalias nocapture writeonly, i8* noalias nocapture readonly, i64, i1 immarg) #2

declare dso_local i32 @printf(i8*, ...) #1


!llvm.module.flags = !{!0}
!llvm.ident = !{!1}

!0 = !{i32 1, !"wchar_size", i32 4}
!1 = !{!"clang version 10.0.0-4ubuntu1 "}
